target datalayout = "e-m:e-p270:32:32-p271:32:32-p272:64:64-i64:64-i128:128-f80:128-n8:16:32:64-S128"
target triple = "x86_64-pc-linux-gnu"

%struct.asn1_get_sequence_of_cb_ctx_t = type { i32, ptr }

; Function Attrs: nounwind uwtable
define hidden i32 @mbedtls_asn1_get_sequence_of(ptr noundef %0, ptr noundef %1, ptr noundef %2, i32 noundef %3) #0 {
  %5 = alloca ptr, align 8
  %6 = alloca ptr, align 8
  %7 = alloca ptr, align 8
  %8 = alloca i32, align 4
  %9 = alloca %struct.asn1_get_sequence_of_cb_ctx_t, align 8
  store ptr %0, ptr %5, align 8, !tbaa !3
  store ptr %1, ptr %6, align 8, !tbaa !9
  store ptr %2, ptr %7, align 8, !tbaa !34
  store i32 %3, ptr %8, align 4, !tbaa !16
  call void @llvm.lifetime.start.p0(i64 16, ptr %9) #7
  %10 = getelementptr inbounds nuw %struct.asn1_get_sequence_of_cb_ctx_t, ptr %9, i32 0, i32 0
  %11 = load i32, ptr %8, align 4, !tbaa !16
  store i32 %11, ptr %10, align 8, !tbaa !40
  %12 = getelementptr i8, ptr %9, i64 4
  call void @llvm.memset.p0.i64(ptr align 4 %12, i8 0, i64 4, i1 false)
  %13 = getelementptr inbounds nuw %struct.asn1_get_sequence_of_cb_ctx_t, ptr %9, i32 0, i32 1
  %14 = load ptr, ptr %7, align 8, !tbaa !34
  store ptr %14, ptr %13, align 8, !tbaa !42
  %15 = load ptr, ptr %7, align 8, !tbaa !34
  call void @llvm.memset.p0.i64(ptr align 8 %15, i8 0, i64 32, i1 false)
  %16 = load ptr, ptr %5, align 8, !tbaa !3
  %17 = load ptr, ptr %6, align 8, !tbaa !9
  %18 = load i32, ptr %8, align 4, !tbaa !16
  %19 = trunc i32 %18 to i8
  %20 = call i32 @mbedtls_asn1_traverse_sequence_of(ptr noundef %16, ptr noundef %17, i8 noundef zeroext -1, i8 noundef zeroext %19, i8 noundef zeroext 0, i8 noundef zeroext 0, ptr noundef @asn1_get_sequence_of_cb, ptr noundef %9)
  call void @llvm.lifetime.end.p0(i64 16, ptr %9) #7
  ret i32 %20
}