; Function Attrs: nounwind uwtable
define hidden i32 @mbedtls_asn1_get_sequence_of(ptr noundef captures(none) %0, ptr noundef %1, ptr noundef %2, i32 noundef %3) local_unnamed_addr #2 {
  %5 = alloca %struct.asn1_get_sequence_of_cb_ctx_t, align 8
  call void @llvm.lifetime.start.p0(i64 16, ptr nonnull %5) #10
  store i32 %3, ptr %5, align 8, !tbaa !27
  %6 = getelementptr inbounds nuw i8, ptr %5, i64 4
  store i32 0, ptr %6, align 4
  %7 = getelementptr inbounds nuw i8, ptr %5, i64 8
  store ptr %2, ptr %7, align 8, !tbaa !29
  tail call void @llvm.memset.p0.i64(ptr noundef nonnull align 8 dereferenceable(32) %2, i8 0, i64 32, i1 false)
  %8 = trunc i32 %3 to i8
  %9 = call i32 @mbedtls_asn1_traverse_sequence_of(ptr noundef %0, ptr noundef %1, i8 noundef zeroext -1, i8 noundef zeroext %8, i8 noundef zeroext 0, i8 noundef zeroext 0, ptr noundef nonnull @asn1_get_sequence_of_cb, ptr noundef nonnull %5)
  call void @llvm.lifetime.end.p0(i64 16, ptr nonnull %5) #10
  ret i32 %9
}